; Function Attrs: mustprogress nofree nounwind willreturn memory(readwrite, inaccessiblemem: write) uwtable
define noundef double @_ZNK6colvar17linearCombination31getPolynomialFactorOfCVGradientEm(ptr noundef nonnull readonly align 8 captures(none) dereferenceable(1633) %0, i64 noundef %1) local_unnamed_addr #17 align 2 {
  %3 = getelementptr inbounds nuw i8, ptr %0, i64 1608
  %4 = load ptr, ptr %3, align 8, !tbaa !41
  %5 = getelementptr inbounds nuw ptr, ptr %4, i64 %1
  %6 = load ptr, ptr %5, align 8, !tbaa !16
  %7 = getelementptr inbounds nuw i8, ptr %6, i64 592
  %8 = load i32, ptr %7, align 8, !tbaa !130
  %9 = icmp eq i32 %8, 1
  %10 = getelementptr inbounds nuw i8, ptr %6, i64 504
  %11 = load double, ptr %10, align 8, !tbaa !131
  br i1 %9, label %12, label %23

12:                                               ; preds = %2
  %13 = getelementptr inbounds nuw i8, ptr %6, i64 512
  %14 = load i32, ptr %13, align 8, !tbaa !132
  %15 = sitofp i32 %14 to double
  %16 = fmul double %11, %15
  %17 = getelementptr inbounds nuw i8, ptr %6, i64 600
  %18 = add nsw i32 %14, -1
  %19 = sitofp i32 %18 to double
  %20 = load double, ptr %17, align 8, !tbaa !133
  %21 = tail call noundef double @pow(double noundef %20, double noundef %19) #25, !tbaa !134
  %22 = fmul double %16, %21
  br label %23

23:                                               ; preds = %2, %12
  %.0 = phi double [ %22, %12 ], [ %11, %2 ]
  ret double %.0
}